(dp0
S'_supreme_session'
p1
S'BAh7CEkiD3Nlc3Npb25faWQGOgZFRkkiJWVhNDQ0YjVkNzdlNTU2MTQ2YjE1OWFmNWE1NGMzYTc1BjsAVEkiB3RqBjsARnsKSSIHcDAGOwBGSXU6CVRpbWUNbtUcgNsIWTQKOgtAX3pvbmVJIghFRFQGOwBUOg1uYW5vX251bWkClQI6DW5hbm9fZGVuaQY6DXN1Ym1pY3JvIgdmEDoLb2Zmc2V0af7Ax0kiB3AxBjsARjBJIgdwMgY7AEYwSSIHY3MGOwBGMEkiB2NjBjsARjBJIgljYXJ0BjsARnsHaQJebWkGOgtjb29raWVJIh4xIGl0ZW0tLSQxNDgtLTI3OTk4LDExNDUzBjsAVA%3D%3D--ba460e0e7519bfcedfd7803c3497017384d44cd6'
p2
sS'pure_cart'
p3
S'%7B%2227998%22%3A1%2C%22cookie%22%3A%221+item--%24148--27998%2C11453%22%7D'
p4
sS'cart'
p5
S'1+item--%24148--27998%2C11453'
p6
s.